; Function Attrs: mustprogress nounwind null_pointer_is_valid sspstrong uwtable
define void @_ZN23ProtocolHierarchyDialogD2Ev(ptr noundef align 8 dereferenceable_or_null(256) initializes((0, 8), (16, 24)) %0) unnamed_addr #8 align 2 {
  store ptr getelementptr inbounds nuw inrange(-16, 496) (i8, ptr @_ZTV23ProtocolHierarchyDialog, i64 16), ptr %0, align 8
  %2 = getelementptr inbounds nuw i8, ptr %0, i64 16
  store ptr getelementptr inbounds nuw inrange(-16, 64) (i8, ptr @_ZTV23ProtocolHierarchyDialog, i64 528), ptr %2, align 8
  %3 = getelementptr inbounds nuw i8, ptr %0, i64 144
  %4 = load ptr, ptr %3, align 8
  %5 = icmp eq ptr %4, null
  br i1 %5, label %7, label %6

6:                                                ; preds = %1
  tail call void @_ZdlPvm(ptr noundef nonnull %4, i64 noundef 72) #28
  br label %7

7:                                                ; preds = %6, %1
  %8 = getelementptr inbounds nuw i8, ptr %0, i64 248
  tail call void @_ZN5QHashI7QString15QHashDummyValueED2Ev(ptr noundef nonnull align 8 dereferenceable_or_null(8) %8) #27
  %9 = getelementptr inbounds nuw i8, ptr %0, i64 224
  %10 = load ptr, ptr %9, align 8
  %.not.i.i.i = icmp eq ptr %10, null
  br i1 %.not.i.i.i, label %_ZN7QStringD2Ev.exit, label %_ZN17QArrayDataPointerIDsE5derefEv.exit.i.i

_ZN17QArrayDataPointerIDsE5derefEv.exit.i.i:      ; preds = %7
  %11 = atomicrmw sub ptr %10, i32 1 seq_cst, align 4
  %.not.i.i = icmp eq i32 %11, 1
  br i1 %.not.i.i, label %12, label %_ZN7QStringD2Ev.exit

12:                                               ; preds = %_ZN17QArrayDataPointerIDsE5derefEv.exit.i.i
  %13 = load ptr, ptr %9, align 8
  tail call void @_ZN10QArrayData10deallocateEPS_xx(ptr noundef %13, i64 noundef 2, i64 noundef 8) #27
  br label %_ZN7QStringD2Ev.exit

_ZN7QStringD2Ev.exit:                             ; preds = %7, %_ZN17QArrayDataPointerIDsE5derefEv.exit.i.i, %12
  %14 = getelementptr inbounds nuw i8, ptr %0, i64 208
  tail call void @_ZN19QStyledItemDelegateD2Ev(ptr noundef nonnull align 8 dereferenceable_or_null(16) %14) #27
  %15 = getelementptr inbounds nuw i8, ptr %0, i64 168
  tail call void @_ZN5QMenuD1Ev(ptr noundef nonnull align 8 dereferenceable_or_null(40) %15) #27
  store ptr getelementptr inbounds nuw inrange(-16, 496) (i8, ptr @_ZTV15WiresharkDialog, i64 16), ptr %0, align 8
  store ptr getelementptr inbounds nuw inrange(-16, 64) (i8, ptr @_ZTV15WiresharkDialog, i64 528), ptr %2, align 8
  %16 = getelementptr inbounds nuw i8, ptr %0, i64 112
  %17 = load ptr, ptr %16, align 8
  %.not.i.i.i.i = icmp eq ptr %17, null
  br i1 %.not.i.i.i.i, label %_ZN5QListIPvED2Ev.exit.i, label %_ZN17QArrayDataPointerIPvE5derefEv.exit.i.i.i

_ZN17QArrayDataPointerIPvE5derefEv.exit.i.i.i:    ; preds = %_ZN7QStringD2Ev.exit
  %18 = atomicrmw sub ptr %17, i32 1 seq_cst, align 4
  %.not.i.i.i1 = icmp eq i32 %18, 1
  br i1 %.not.i.i.i1, label %19, label %_ZN5QListIPvED2Ev.exit.i

19:                                               ; preds = %_ZN17QArrayDataPointerIPvE5derefEv.exit.i.i.i
  %20 = load ptr, ptr %16, align 8
  tail call void @_ZN10QArrayData10deallocateEPS_xx(ptr noundef %20, i64 noundef 8, i64 noundef 8) #27
  br label %_ZN5QListIPvED2Ev.exit.i

_ZN5QListIPvED2Ev.exit.i:                         ; preds = %19, %_ZN17QArrayDataPointerIPvE5derefEv.exit.i.i.i, %_ZN7QStringD2Ev.exit
  %21 = getelementptr inbounds nuw i8, ptr %0, i64 88
  %22 = load ptr, ptr %21, align 8
  %.not.i.i.i1.i = icmp eq ptr %22, null
  br i1 %.not.i.i.i1.i, label %_ZN15WiresharkDialogD2Ev.exit, label %_ZN17QArrayDataPointerIDsE5derefEv.exit.i.i.i

_ZN17QArrayDataPointerIDsE5derefEv.exit.i.i.i:    ; preds = %_ZN5QListIPvED2Ev.exit.i
  %23 = atomicrmw sub ptr %22, i32 1 seq_cst, align 4
  %.not.i.i2.i = icmp eq i32 %23, 1
  br i1 %.not.i.i2.i, label %24, label %_ZN15WiresharkDialogD2Ev.exit

24:                                               ; preds = %_ZN17QArrayDataPointerIDsE5derefEv.exit.i.i.i
  %25 = load ptr, ptr %21, align 8
  tail call void @_ZN10QArrayData10deallocateEPS_xx(ptr noundef %25, i64 noundef 2, i64 noundef 8) #27
  br label %_ZN15WiresharkDialogD2Ev.exit

_ZN15WiresharkDialogD2Ev.exit:                    ; preds = %_ZN5QListIPvED2Ev.exit.i, %_ZN17QArrayDataPointerIDsE5derefEv.exit.i.i.i, %24
  tail call void @_ZN19GeometryStateDialogD2Ev(ptr noundef align 8 dereferenceable_or_null(141) %0) #27
  ret void
}